; Function Attrs: mustprogress uwtable
define void @_ZN32pxrInternal_v0_24__pxrReserved__47UsdImagingPiPrototypePropagatingSceneIndex_Impl22_UsdPrimInfoSceneIndex22_GetOrCreateDataSourceERKNS_7SdfPathE(ptr dead_on_unwind noalias writable sret(%"class.std::shared_ptr") align 8 %0, ptr noundef nonnull align 8 dereferenceable(160) %1, ptr noundef nonnull align 4 dereferenceable(8) %2) local_unnamed_addr #0 align 2 personality ptr @__gxx_personality_v0 {
  %4 = alloca %"class.std::shared_ptr", align 8
  call void @_ZN32pxrInternal_v0_24__pxrReserved__47UsdImagingPiPrototypePropagatingSceneIndex_Impl22_UsdPrimInfoSceneIndex14_GetDataSourceERKNS_7SdfPathE(ptr dead_on_unwind nonnull writable sret(%"class.std::shared_ptr") align 8 %4, ptr noundef nonnull align 8 dereferenceable(160) %1, ptr noundef nonnull align 4 dereferenceable(8) %2)
  %5 = load ptr, ptr %4, align 8
  %.not = icmp eq ptr %5, null
  br i1 %.not, label %18, label %6

6:                                                ; preds = %3
  store ptr %5, ptr %0, align 8
  %7 = getelementptr inbounds nuw i8, ptr %0, i64 8
  %8 = getelementptr inbounds nuw i8, ptr %4, i64 8
  %9 = load ptr, ptr %8, align 8
  store ptr %9, ptr %7, align 8
  %.not.i.i.i = icmp eq ptr %9, null
  br i1 %.not.i.i.i, label %_ZNSt10shared_ptrIN32pxrInternal_v0_24__pxrReserved__47UsdImagingPiPrototypePropagatingSceneIndex_Impl27_PropagatedPrototypesSourceEEC2ERKS3_.exit, label %10

10:                                               ; preds = %6
  %11 = getelementptr inbounds nuw i8, ptr %9, i64 8
  %12 = load i8, ptr @__libc_single_threaded, align 1
  %.not.i.i.i.i = icmp eq i8 %12, 0
  br i1 %.not.i.i.i.i, label %16, label %13

13:                                               ; preds = %10
  %14 = load i32, ptr %11, align 4
  %15 = add nsw i32 %14, 1
  store i32 %15, ptr %11, align 4
  br label %_ZNSt10shared_ptrIN32pxrInternal_v0_24__pxrReserved__47UsdImagingPiPrototypePropagatingSceneIndex_Impl27_PropagatedPrototypesSourceEEC2ERKS3_.exit

16:                                               ; preds = %10
  %17 = atomicrmw volatile add ptr %11, i32 1 acq_rel, align 4
  br label %_ZNSt10shared_ptrIN32pxrInternal_v0_24__pxrReserved__47UsdImagingPiPrototypePropagatingSceneIndex_Impl27_PropagatedPrototypesSourceEEC2ERKS3_.exit

18:                                               ; preds = %3
  invoke void @_ZN32pxrInternal_v0_24__pxrReserved__47UsdImagingPiPrototypePropagatingSceneIndex_Impl22_UsdPrimInfoSceneIndex17_CreateDataSourceERKNS_7SdfPathE(ptr dead_on_unwind writable sret(%"class.std::shared_ptr") align 8 %0, ptr noundef nonnull align 8 dereferenceable(160) %1, ptr noundef nonnull align 4 dereferenceable(8) %2)
          to label %_ZNSt10shared_ptrIN32pxrInternal_v0_24__pxrReserved__47UsdImagingPiPrototypePropagatingSceneIndex_Impl27_PropagatedPrototypesSourceEEC2ERKS3_.exit unwind label %19

19:                                               ; preds = %18
  %20 = landingpad { ptr, i32 }
          cleanup
  call void @_ZNSt10shared_ptrIN32pxrInternal_v0_24__pxrReserved__47UsdImagingPiPrototypePropagatingSceneIndex_Impl27_PropagatedPrototypesSourceEED2Ev(ptr noundef nonnull align 8 dereferenceable(16) %4) #23
  resume { ptr, i32 } %20

_ZNSt10shared_ptrIN32pxrInternal_v0_24__pxrReserved__47UsdImagingPiPrototypePropagatingSceneIndex_Impl27_PropagatedPrototypesSourceEEC2ERKS3_.exit: ; preds = %16, %13, %6, %18
  %21 = getelementptr inbounds nuw i8, ptr %4, i64 8
  %22 = load ptr, ptr %21, align 8
  %.not.i.i.i4 = icmp eq ptr %22, null
  br i1 %.not.i.i.i4, label %_ZNSt10shared_ptrIN32pxrInternal_v0_24__pxrReserved__47UsdImagingPiPrototypePropagatingSceneIndex_Impl27_PropagatedPrototypesSourceEED2Ev.exit, label %23

23:                                               ; preds = %_ZNSt10shared_ptrIN32pxrInternal_v0_24__pxrReserved__47UsdImagingPiPrototypePropagatingSceneIndex_Impl27_PropagatedPrototypesSourceEEC2ERKS3_.exit
  %24 = getelementptr inbounds nuw i8, ptr %22, i64 8
  %25 = load atomic i64, ptr %24 acquire, align 8
  %26 = icmp eq i64 %25, 4294967297
  %27 = trunc i64 %25 to i32
  br i1 %26, label %28, label %33

28:                                               ; preds = %23
  store i32 0, ptr %24, align 8
  %29 = getelementptr inbounds nuw i8, ptr %22, i64 12
  store i32 0, ptr %29, align 4
  %30 = load ptr, ptr %22, align 8
  %31 = getelementptr inbounds i8, ptr %30, i64 16
  %32 = load ptr, ptr %31, align 8
  tail call void %32(ptr noundef nonnull align 8 dereferenceable(16) %22) #23
  br label %_ZNSt16_Sp_counted_baseILN9__gnu_cxx12_Lock_policyE2EE24_M_release_last_use_coldEv.exit.sink.split.i.i.i.i

33:                                               ; preds = %23
  %34 = load i8, ptr @__libc_single_threaded, align 1
  %.not.i.i.i.i5 = icmp eq i8 %34, 0
  br i1 %.not.i.i.i.i5, label %37, label %35

35:                                               ; preds = %33
  %36 = add nsw i32 %27, -1
  store i32 %36, ptr %24, align 4
  br label %39

37:                                               ; preds = %33
  %38 = atomicrmw volatile add ptr %24, i32 -1 acq_rel, align 4
  br label %39

39:                                               ; preds = %37, %35
  %.0.i.i.i.i = phi i32 [ %27, %35 ], [ %38, %37 ]
  %40 = icmp eq i32 %.0.i.i.i.i, 1
  br i1 %40, label %41, label %_ZNSt10shared_ptrIN32pxrInternal_v0_24__pxrReserved__47UsdImagingPiPrototypePropagatingSceneIndex_Impl27_PropagatedPrototypesSourceEED2Ev.exit

41:                                               ; preds = %39
  %42 = load ptr, ptr %22, align 8
  %43 = getelementptr inbounds i8, ptr %42, i64 16
  %44 = load ptr, ptr %43, align 8
  tail call void %44(ptr noundef nonnull align 8 dereferenceable(16) %22) #23
  %45 = getelementptr inbounds nuw i8, ptr %22, i64 12
  %46 = load i8, ptr @__libc_single_threaded, align 1
  %.not.i.i.i.i.i.i = icmp eq i8 %46, 0
  br i1 %.not.i.i.i.i.i.i, label %50, label %47

47:                                               ; preds = %41
  %48 = load i32, ptr %45, align 4
  %49 = add nsw i32 %48, -1
  store i32 %49, ptr %45, align 4
  br label %52

50:                                               ; preds = %41
  %51 = atomicrmw volatile add ptr %45, i32 -1 acq_rel, align 4
  br label %52

52:                                               ; preds = %50, %47
  %.0.i.i.i.i.i.i = phi i32 [ %48, %47 ], [ %51, %50 ]
  %53 = icmp eq i32 %.0.i.i.i.i.i.i, 1
  br i1 %53, label %_ZNSt16_Sp_counted_baseILN9__gnu_cxx12_Lock_policyE2EE24_M_release_last_use_coldEv.exit.sink.split.i.i.i.i, label %_ZNSt10shared_ptrIN32pxrInternal_v0_24__pxrReserved__47UsdImagingPiPrototypePropagatingSceneIndex_Impl27_PropagatedPrototypesSourceEED2Ev.exit

_ZNSt16_Sp_counted_baseILN9__gnu_cxx12_Lock_policyE2EE24_M_release_last_use_coldEv.exit.sink.split.i.i.i.i: ; preds = %52, %28
  %54 = load ptr, ptr %22, align 8
  %55 = getelementptr inbounds i8, ptr %54, i64 24
  %56 = load ptr, ptr %55, align 8
  tail call void %56(ptr noundef nonnull align 8 dereferenceable(16) %22) #23
  br label %_ZNSt10shared_ptrIN32pxrInternal_v0_24__pxrReserved__47UsdImagingPiPrototypePropagatingSceneIndex_Impl27_PropagatedPrototypesSourceEED2Ev.exit

_ZNSt10shared_ptrIN32pxrInternal_v0_24__pxrReserved__47UsdImagingPiPrototypePropagatingSceneIndex_Impl27_PropagatedPrototypesSourceEED2Ev.exit: ; preds = %_ZNSt10shared_ptrIN32pxrInternal_v0_24__pxrReserved__47UsdImagingPiPrototypePropagatingSceneIndex_Impl27_PropagatedPrototypesSourceEEC2ERKS3_.exit, %39, %52, %_ZNSt16_Sp_counted_baseILN9__gnu_cxx12_Lock_policyE2EE24_M_release_last_use_coldEv.exit.sink.split.i.i.i.i
  ret void
}